target datalayout = "e-m:e-p270:32:32-p271:32:32-p272:64:64-i64:64-i128:128-f80:128-n8:16:32:64-S128"
target triple = "x86_64-pc-linux-gnu"

%"class.fmt::v11::basic_string_view" = type { ptr, i64 }
%"class.std::system_error" = type { %"class.std::runtime_error", %"class.std::error_code" }
%"class.std::runtime_error" = type { %"class.std::exception", %"struct.std::__cow_string" }
%"class.std::exception" = type { ptr }
%"struct.std::__cow_string" = type { %union.anon }
%union.anon = type { ptr }
%"class.std::error_code" = type { i32, ptr }
%"class.fmt::v11::basic_format_args" = type { i64, %union.anon.39 }
%union.anon.39 = type { ptr }
%"class.fmt::v11::detail::value" = type { %union.anon.40 }
%union.anon.40 = type { i128 }
%"class.fmt::v11::file" = type { i32 }
%"class.fmt::v11::basic_format_string.26" = type { %"class.fmt::v11::basic_string_view" }
%struct.FMT_COMPILE_STRING.27 = type { i8 }
%class.anon.28 = type { i8 }
%"struct.fmt::v11::detail::format_arg_store.43" = type { [2 x %"class.fmt::v11::detail::value"] }
%"struct.fmt::v11::detail::arg_mapper" = type { i8 }

@_ZTISt12system_error = external constant ptr
@.str.8 = private unnamed_addr constant [42 x i8] c"cannot duplicate file descriptor {} to {}\00", align 1
@"__const._ZN3fmt3v116detail19check_format_stringIJRiS3_EZZNS0_4file4dup2EiENK3$_0clEvE18FMT_COMPILE_STRINGTnNSt9enable_ifIXsr17is_compile_stringIT0_EE5valueEiE4typeELi0EEEvS8_.s" = private unnamed_addr constant %"class.fmt::v11::basic_string_view" { ptr @.str.8, i64 41 }, align 8

; Function Attrs: alwaysinline mustprogress nounwind uwtable
define linkonce_odr void @_ZN3fmt3v116detail5valueINS0_7contextEEC2Ei(ptr noundef nonnull align 16 dereferenceable(16) %0, i32 noundef %1) unnamed_addr #13 comdat align 2 {
  %3 = alloca ptr, align 8
  %4 = alloca i32, align 4
  store ptr %0, ptr %3, align 8, !tbaa !118
  store i32 %1, ptr %4, align 4, !tbaa !11
  %5 = load ptr, ptr %3, align 8
  %6 = getelementptr inbounds nuw %"class.fmt::v11::detail::value", ptr %5, i32 0, i32 0
  %7 = load i32, ptr %4, align 4, !tbaa !11
  store i32 %7, ptr %6, align 16, !tbaa !115
  ret void
}

; Function Attrs: alwaysinline mustprogress nounwind uwtable
define linkonce_odr noundef i32 @_ZN3fmt3v116detail10arg_mapperINS0_7contextEE3mapEi(ptr noundef nonnull align 1 dereferenceable(1) %0, i32 noundef %1) #13 comdat align 2 {
  %3 = alloca ptr, align 8
  %4 = alloca i32, align 4
  store ptr %0, ptr %3, align 8, !tbaa !116
  store i32 %1, ptr %4, align 4, !tbaa !11
  %5 = load i32, ptr %4, align 4, !tbaa !11
  ret i32 %5
}

; Function Attrs: mustprogress nounwind uwtable
define linkonce_odr void @_ZN3fmt3v1117basic_string_viewIcEC2EPKcm(ptr noundef nonnull align 8 dereferenceable(16) %0, ptr noundef %1, i64 noundef %2) unnamed_addr #0 comdat align 2 {
  %4 = alloca ptr, align 8
  %5 = alloca ptr, align 8
  %6 = alloca i64, align 8
  store ptr %0, ptr %4, align 8, !tbaa !120
  store ptr %1, ptr %5, align 8, !tbaa !15
  store i64 %2, ptr %6, align 8, !tbaa !50
  %7 = load ptr, ptr %4, align 8
  %8 = getelementptr inbounds nuw %"class.fmt::v11::basic_string_view", ptr %7, i32 0, i32 0
  %9 = load ptr, ptr %5, align 8, !tbaa !15
  store ptr %9, ptr %8, align 8, !tbaa !122
  %10 = getelementptr inbounds nuw %"class.fmt::v11::basic_string_view", ptr %7, i32 0, i32 1
  %11 = load i64, ptr %6, align 8, !tbaa !50
  store i64 %11, ptr %10, align 8, !tbaa !124
  ret void
}

; Function Attrs: mustprogress nounwind uwtable
define linkonce_odr noundef i32 @_ZNSt11char_traitsIcE11to_int_typeERKc(ptr noundef nonnull align 1 dereferenceable(1) %0) #0 comdat align 2 {
  %2 = alloca ptr, align 8
  store ptr %0, ptr %2, align 8, !tbaa !15
  %3 = load ptr, ptr %2, align 8, !tbaa !15
  %4 = load i8, ptr %3, align 1, !tbaa !115
  %5 = zext i8 %4 to i32
  ret i32 %5
}

; Function Attrs: mustprogress uwtable
define linkonce_odr { i64, i64 } @_ZN3fmt3v116detail8make_argILb1ENS0_7contextEiTnNSt9enable_ifIXT_EiE4typeELi0EEENS1_5valueIT0_EERT1_(ptr noundef nonnull align 4 dereferenceable(4) %0) #5 comdat {
  %2 = alloca %"class.fmt::v11::detail::value", align 16
  %3 = alloca ptr, align 8
  %4 = alloca %"struct.fmt::v11::detail::arg_mapper", align 1
  store ptr %0, ptr %3, align 8, !tbaa !59
  call void @llvm.lifetime.start.p0(i64 1, ptr %4) #15
  %5 = load ptr, ptr %3, align 8, !tbaa !59
  %6 = load i32, ptr %5, align 4, !tbaa !11
  %7 = call noundef i32 @_ZN3fmt3v116detail10arg_mapperINS0_7contextEE3mapEi(ptr noundef nonnull align 1 dereferenceable(1) %4, i32 noundef %6)
  call void @_ZN3fmt3v116detail5valueINS0_7contextEEC2Ei(ptr noundef nonnull align 16 dereferenceable(16) %2, i32 noundef %7)
  call void @llvm.lifetime.end.p0(i64 1, ptr %4) #15
  %8 = getelementptr inbounds nuw %"class.fmt::v11::detail::value", ptr %2, i32 0, i32 0
  %9 = getelementptr inbounds nuw %union.anon.40, ptr %8, i32 0, i32 0
  %10 = load { i64, i64 }, ptr %9, align 16
  ret { i64, i64 } %10
}

; Function Attrs: mustprogress nounwind uwtable
define linkonce_odr void @_ZN3fmt3v116detail13ignore_unusedIJbEEEvDpRKT_(ptr noundef nonnull align 1 dereferenceable(1) %0) #0 comdat {
  %2 = alloca ptr, align 8
  store ptr %0, ptr %2, align 8, !tbaa !105
  ret void
}

; Function Attrs: mustprogress nounwind uwtable
define linkonce_odr { ptr, i64 } @_ZN3fmt3v1115detail_exported22compile_string_to_viewIcLm42EEENS0_17basic_string_viewIT_EERAT0__KS4_(ptr noundef nonnull align 1 dereferenceable(42) %0) #0 comdat {
  %2 = alloca %"class.fmt::v11::basic_string_view", align 8
  %3 = alloca ptr, align 8
  store ptr %0, ptr %3, align 8, !tbaa !15
  %4 = load ptr, ptr %3, align 8, !tbaa !15
  %5 = getelementptr inbounds [42 x i8], ptr %4, i64 0, i64 0
  %6 = load ptr, ptr %3, align 8, !tbaa !15
  %7 = getelementptr inbounds nuw [42 x i8], ptr %6, i64 0, i64 41
  %8 = call noundef i32 @_ZNSt11char_traitsIcE11to_int_typeERKc(ptr noundef nonnull align 1 dereferenceable(1) %7) #15
  %9 = icmp eq i32 %8, 0
  %10 = select i1 %9, i32 1, i32 0
  %11 = sext i32 %10 to i64
  %12 = sub i64 42, %11
  call void @_ZN3fmt3v1117basic_string_viewIcEC2EPKcm(ptr noundef nonnull align 8 dereferenceable(16) %2, ptr noundef %5, i64 noundef %12) #15
  %13 = load { ptr, i64 }, ptr %2, align 8
  ret { ptr, i64 } %13
}

; Function Attrs: alwaysinline mustprogress nounwind uwtable
define linkonce_odr void @"_ZN3fmt3v1117basic_format_argsINS0_7contextEEC2ILm2ELm0ELy17ETnNSt9enable_ifIXleT_LNS0_6detail4$_13E15EEiE4typeELi0EEERKNS6_16format_arg_storeIS2_XT_EXT0_EXT1_EEE"(ptr noundef nonnull align 8 dereferenceable(16) %0, ptr noundef nonnull align 16 dereferenceable(32) %1) unnamed_addr #13 comdat align 2 {
  %3 = alloca ptr, align 8
  %4 = alloca ptr, align 8
  store ptr %0, ptr %3, align 8, !tbaa !108
  store ptr %1, ptr %4, align 8, !tbaa !131
  %5 = load ptr, ptr %3, align 8
  %6 = getelementptr inbounds nuw %"class.fmt::v11::basic_format_args", ptr %5, i32 0, i32 0
  store i64 17, ptr %6, align 8, !tbaa !112
  %7 = getelementptr inbounds nuw %"class.fmt::v11::basic_format_args", ptr %5, i32 0, i32 1
  %8 = load ptr, ptr %4, align 8, !tbaa !131
  %9 = getelementptr inbounds nuw %"struct.fmt::v11::detail::format_arg_store.43", ptr %8, i32 0, i32 0
  %10 = getelementptr inbounds [2 x %"class.fmt::v11::detail::value"], ptr %9, i64 0, i64 0
  %11 = getelementptr inbounds %"class.fmt::v11::detail::value", ptr %10, i64 0
  store ptr %11, ptr %7, align 8, !tbaa !115
  ret void
}

; Function Attrs: alwaysinline mustprogress uwtable
define linkonce_odr void @_ZN3fmt3v1116make_format_argsINS0_7contextEJiiELm2ELm0ELy17ETnNSt9enable_ifIXeqT2_Li0EEiE4typeELi0EEENS0_6detail16format_arg_storeIT_XT1_ELm0EXT3_EEEDpRT0_(ptr dead_on_unwind noalias writable sret(%"struct.fmt::v11::detail::format_arg_store.43") align 16 %0, ptr noundef nonnull align 4 dereferenceable(4) %1, ptr noundef nonnull align 4 dereferenceable(4) %2) #8 comdat {
  %4 = alloca ptr, align 8
  %5 = alloca ptr, align 8
  store ptr %1, ptr %4, align 8, !tbaa !59
  store ptr %2, ptr %5, align 8, !tbaa !59
  %6 = getelementptr inbounds nuw %"struct.fmt::v11::detail::format_arg_store.43", ptr %0, i32 0, i32 0
  %7 = load ptr, ptr %4, align 8, !tbaa !59
  %8 = call { i64, i64 } @_ZN3fmt3v116detail8make_argILb1ENS0_7contextEiTnNSt9enable_ifIXT_EiE4typeELi0EEENS1_5valueIT0_EERT1_(ptr noundef nonnull align 4 dereferenceable(4) %7)
  %9 = getelementptr inbounds nuw %"class.fmt::v11::detail::value", ptr %6, i32 0, i32 0
  %10 = getelementptr inbounds nuw %union.anon.40, ptr %9, i32 0, i32 0
  %11 = getelementptr inbounds nuw { i64, i64 }, ptr %10, i32 0, i32 0
  %12 = extractvalue { i64, i64 } %8, 0
  store i64 %12, ptr %11, align 16
  %13 = getelementptr inbounds nuw { i64, i64 }, ptr %10, i32 0, i32 1
  %14 = extractvalue { i64, i64 } %8, 1
  store i64 %14, ptr %13, align 8
  %15 = getelementptr inbounds %"class.fmt::v11::detail::value", ptr %6, i64 1
  %16 = load ptr, ptr %5, align 8, !tbaa !59
  %17 = call { i64, i64 } @_ZN3fmt3v116detail8make_argILb1ENS0_7contextEiTnNSt9enable_ifIXT_EiE4typeELi0EEENS1_5valueIT0_EERT1_(ptr noundef nonnull align 4 dereferenceable(4) %16)
  %18 = getelementptr inbounds nuw %"class.fmt::v11::detail::value", ptr %15, i32 0, i32 0
  %19 = getelementptr inbounds nuw %union.anon.40, ptr %18, i32 0, i32 0
  %20 = getelementptr inbounds nuw { i64, i64 }, ptr %19, i32 0, i32 0
  %21 = extractvalue { i64, i64 } %17, 0
  store i64 %21, ptr %20, align 16
  %22 = getelementptr inbounds nuw { i64, i64 }, ptr %19, i32 0, i32 1
  %23 = extractvalue { i64, i64 } %17, 1
  store i64 %23, ptr %22, align 8
  ret void
}

; Function Attrs: alwaysinline mustprogress nounwind uwtable
define linkonce_odr { ptr, i64 } @_ZNK3fmt3v1119basic_format_stringIcJRiS2_EEcvNS0_17basic_string_viewIcEEEv(ptr noundef nonnull align 8 dereferenceable(16) %0) #13 comdat align 2 {
  %2 = alloca %"class.fmt::v11::basic_string_view", align 8
  %3 = alloca ptr, align 8
  store ptr %0, ptr %3, align 8, !tbaa !66
  %4 = load ptr, ptr %3, align 8
  %5 = getelementptr inbounds nuw %"class.fmt::v11::basic_format_string.26", ptr %4, i32 0, i32 0
  call void @llvm.memcpy.p0.p0.i64(ptr align 8 %2, ptr align 8 %5, i64 16, i1 false), !tbaa.struct !107
  %6 = load { ptr, i64 }, ptr %2, align 8
  ret { ptr, i64 } %6
}

; Function Attrs: mustprogress nounwind uwtable
define internal void @"_ZN3fmt3v116detail19check_format_stringIJRiS3_EZZNS0_4file4dup2EiENK3$_0clEvE18FMT_COMPILE_STRINGTnNSt9enable_ifIXsr17is_compile_stringIT0_EE5valueEiE4typeELi0EEEvS8_"() #0 {
  %1 = alloca %"class.fmt::v11::basic_string_view", align 8
  %2 = alloca i8, align 1
  call void @llvm.lifetime.start.p0(i64 16, ptr %1) #15
  call void @llvm.memcpy.p0.p0.i64(ptr align 8 %1, ptr align 8 @"__const._ZN3fmt3v116detail19check_format_stringIJRiS3_EZZNS0_4file4dup2EiENK3$_0clEvE18FMT_COMPILE_STRINGTnNSt9enable_ifIXsr17is_compile_stringIT0_EE5valueEiE4typeELi0EEEvS8_.s", i64 16, i1 false)
  call void @llvm.lifetime.start.p0(i64 1, ptr %2) #15
  store i8 1, ptr %2, align 1, !tbaa !54
  call void @_ZN3fmt3v116detail13ignore_unusedIJbEEEvDpRKT_(ptr noundef nonnull align 1 dereferenceable(1) %2)
  call void @llvm.lifetime.end.p0(i64 1, ptr %2) #15
  call void @llvm.lifetime.end.p0(i64 16, ptr %1) #15
  ret void
}

; Function Attrs: mustprogress uwtable
define internal { ptr, i64 } @"_ZZZN3fmt3v114file4dup2EiENK3$_0clEvENK18FMT_COMPILE_STRINGcvNS0_17basic_string_viewIcEEEv"(ptr noundef nonnull align 1 dereferenceable(1) %0) #5 align 2 {
  %2 = alloca %"class.fmt::v11::basic_string_view", align 8
  %3 = alloca ptr, align 8
  store ptr %0, ptr %3, align 8, !tbaa !68
  %4 = call { ptr, i64 } @_ZN3fmt3v1115detail_exported22compile_string_to_viewIcLm42EEENS0_17basic_string_viewIT_EERAT0__KS4_(ptr noundef nonnull align 1 dereferenceable(42) @.str.8)
  %5 = getelementptr inbounds nuw { ptr, i64 }, ptr %2, i32 0, i32 0
  %6 = extractvalue { ptr, i64 } %4, 0
  store ptr %6, ptr %5, align 8
  %7 = getelementptr inbounds nuw { ptr, i64 }, ptr %2, i32 0, i32 1
  %8 = extractvalue { ptr, i64 } %4, 1
  store i64 %8, ptr %7, align 8
  %9 = load { ptr, i64 }, ptr %2, align 8
  ret { ptr, i64 } %9
}

; Function Attrs: mustprogress uwtable
define linkonce_odr void @_ZN3fmt3v1112system_errorIJRiS2_EEESt12system_erroriNS0_19basic_format_stringIcJDpNS0_13type_identityIT_E4typeEEEEDpOS6_(ptr dead_on_unwind noalias writable sret(%"class.std::system_error") align 8 %0, i32 noundef %1, ptr %2, i64 %3, ptr noundef nonnull align 4 dereferenceable(4) %4, ptr noundef nonnull align 4 dereferenceable(4) %5) #5 comdat {
  %7 = alloca ptr, align 8
  %8 = alloca %"class.fmt::v11::basic_format_string.26", align 8
  %9 = alloca i32, align 4
  %10 = alloca ptr, align 8
  %11 = alloca ptr, align 8
  %12 = alloca %"class.fmt::v11::basic_string_view", align 8
  %13 = alloca %"class.fmt::v11::basic_format_args", align 8
  %14 = alloca %"struct.fmt::v11::detail::format_arg_store.43", align 16
  store ptr %0, ptr %7, align 8
  %15 = getelementptr inbounds nuw { ptr, i64 }, ptr %8, i32 0, i32 0
  store ptr %2, ptr %15, align 8
  %16 = getelementptr inbounds nuw { ptr, i64 }, ptr %8, i32 0, i32 1
  store i64 %3, ptr %16, align 8
  store i32 %1, ptr %9, align 4, !tbaa !11
  store ptr %4, ptr %10, align 8, !tbaa !59
  store ptr %5, ptr %11, align 8, !tbaa !59
  %17 = load i32, ptr %9, align 4, !tbaa !11
  %18 = call { ptr, i64 } @_ZNK3fmt3v1119basic_format_stringIcJRiS2_EEcvNS0_17basic_string_viewIcEEEv(ptr noundef nonnull align 8 dereferenceable(16) %8)
  %19 = getelementptr inbounds nuw { ptr, i64 }, ptr %12, i32 0, i32 0
  %20 = extractvalue { ptr, i64 } %18, 0
  store ptr %20, ptr %19, align 8
  %21 = getelementptr inbounds nuw { ptr, i64 }, ptr %12, i32 0, i32 1
  %22 = extractvalue { ptr, i64 } %18, 1
  store i64 %22, ptr %21, align 8
  call void @llvm.lifetime.start.p0(i64 32, ptr %14) #15
  %23 = load ptr, ptr %10, align 8, !tbaa !59
  %24 = load ptr, ptr %11, align 8, !tbaa !59
  call void @_ZN3fmt3v1116make_format_argsINS0_7contextEJiiELm2ELm0ELy17ETnNSt9enable_ifIXeqT2_Li0EEiE4typeELi0EEENS0_6detail16format_arg_storeIT_XT1_ELm0EXT3_EEEDpRT0_(ptr dead_on_unwind writable sret(%"struct.fmt::v11::detail::format_arg_store.43") align 16 %14, ptr noundef nonnull align 4 dereferenceable(4) %23, ptr noundef nonnull align 4 dereferenceable(4) %24)
  call void @"_ZN3fmt3v1117basic_format_argsINS0_7contextEEC2ILm2ELm0ELy17ETnNSt9enable_ifIXleT_LNS0_6detail4$_13E15EEiE4typeELi0EEERKNS6_16format_arg_storeIS2_XT_EXT0_EXT1_EEE"(ptr noundef nonnull align 8 dereferenceable(16) %13, ptr noundef nonnull align 16 dereferenceable(32) %14)
  %25 = getelementptr inbounds nuw { ptr, i64 }, ptr %12, i32 0, i32 0
  %26 = load ptr, ptr %25, align 8
  %27 = getelementptr inbounds nuw { ptr, i64 }, ptr %12, i32 0, i32 1
  %28 = load i64, ptr %27, align 8
  %29 = getelementptr inbounds nuw { i64, ptr }, ptr %13, i32 0, i32 0
  %30 = load i64, ptr %29, align 8
  %31 = getelementptr inbounds nuw { i64, ptr }, ptr %13, i32 0, i32 1
  %32 = load ptr, ptr %31, align 8
  call void @_ZN3fmt3v1113vsystem_errorEiNS0_17basic_string_viewIcEENS0_17basic_format_argsINS0_7contextEEE(ptr dead_on_unwind writable sret(%"class.std::system_error") align 8 %0, i32 noundef %17, ptr %26, i64 %28, i64 %30, ptr %32)
  call void @llvm.lifetime.end.p0(i64 32, ptr %14) #15
  ret void
}

; Function Attrs: alwaysinline mustprogress uwtable
define internal void @"_ZN3fmt3v1119basic_format_stringIcJRiS2_EEC2IZZNS0_4file4dup2EiENK3$_0clEvE18FMT_COMPILE_STRINGTnNSt9enable_ifIXoosr3std14is_convertibleIRKT_NS0_17basic_string_viewIcEEEE5valueaasr6detail17is_compile_stringIS9_EE5valuesr3std16is_constructibleISD_SB_EE5valueEiE4typeELi0EEESB_"(ptr noundef nonnull align 8 dereferenceable(16) %0, ptr noundef nonnull align 1 dereferenceable(1) %1) unnamed_addr #8 align 2 {
  %3 = alloca ptr, align 8
  %4 = alloca ptr, align 8
  store ptr %0, ptr %3, align 8, !tbaa !66
  store ptr %1, ptr %4, align 8, !tbaa !68
  %5 = load ptr, ptr %3, align 8
  %6 = getelementptr inbounds nuw %"class.fmt::v11::basic_format_string.26", ptr %5, i32 0, i32 0
  %7 = load ptr, ptr %4, align 8, !tbaa !68
  %8 = call { ptr, i64 } @"_ZZZN3fmt3v114file4dup2EiENK3$_0clEvENK18FMT_COMPILE_STRINGcvNS0_17basic_string_viewIcEEEv"(ptr noundef nonnull align 1 dereferenceable(1) %7)
  %9 = getelementptr inbounds nuw { ptr, i64 }, ptr %6, i32 0, i32 0
  %10 = extractvalue { ptr, i64 } %8, 0
  store ptr %10, ptr %9, align 8
  %11 = getelementptr inbounds nuw { ptr, i64 }, ptr %6, i32 0, i32 1
  %12 = extractvalue { ptr, i64 } %8, 1
  store i64 %12, ptr %11, align 8
  call void @"_ZN3fmt3v116detail19check_format_stringIJRiS3_EZZNS0_4file4dup2EiENK3$_0clEvE18FMT_COMPILE_STRINGTnNSt9enable_ifIXsr17is_compile_stringIT0_EE5valueEiE4typeELi0EEEvS8_"()
  ret void
}

; Function Attrs: inlinehint mustprogress nounwind uwtable
define internal void @"_ZZN3fmt3v114file4dup2EiENK3$_0clEv"(ptr noundef nonnull align 1 dereferenceable(1) %0) #7 align 2 {
  %2 = alloca ptr, align 8
  store ptr %0, ptr %2, align 8, !tbaa !24
  ret void
}

; Function Attrs: mustprogress uwtable
define void @_ZN3fmt3v114file4dup2Ei(ptr noundef nonnull align 4 dereferenceable(4) %0, i32 noundef %1) #5 align 2 personality ptr @__gxx_personality_v0 {
  %3 = alloca ptr, align 8
  %4 = alloca i32, align 4
  %5 = alloca i32, align 4
  %6 = alloca %"class.fmt::v11::basic_format_string.26", align 8
  %7 = alloca %struct.FMT_COMPILE_STRING.27, align 1
  %8 = alloca %class.anon.28, align 1
  %9 = alloca ptr, align 8
  %10 = alloca i32, align 4
  %11 = alloca i1, align 1
  store ptr %0, ptr %3, align 8, !tbaa !35
  store i32 %1, ptr %4, align 4, !tbaa !11
  %12 = load ptr, ptr %3, align 8
  call void @llvm.lifetime.start.p0(i64 4, ptr %5) #15
  store i32 0, ptr %5, align 4, !tbaa !11
  br label %13

13:                                               ; preds = %25, %2
  %14 = getelementptr inbounds nuw %"class.fmt::v11::file", ptr %12, i32 0, i32 0
  %15 = load i32, ptr %14, align 4, !tbaa !37
  %16 = load i32, ptr %4, align 4, !tbaa !11
  %17 = call i32 @dup2(i32 noundef %15, i32 noundef %16) #15
  store i32 %17, ptr %5, align 4, !tbaa !11
  br label %18

18:                                               ; preds = %13
  %19 = load i32, ptr %5, align 4, !tbaa !11
  %20 = icmp eq i32 %19, -1
  br i1 %20, label %21, label %25

21:                                               ; preds = %18
  %22 = call ptr @__errno_location() #14
  %23 = load i32, ptr %22, align 4, !tbaa !11
  %24 = icmp eq i32 %23, 4
  br label %25

25:                                               ; preds = %21, %18
  %26 = phi i1 [ false, %18 ], [ %24, %21 ]
  br i1 %26, label %13, label %27, !llvm.loop !65

27:                                               ; preds = %25
  %28 = load i32, ptr %5, align 4, !tbaa !11
  %29 = icmp eq i32 %28, -1
  br i1 %29, label %30, label %49

30:                                               ; preds = %27
  store i1 true, ptr %11, align 1
  %31 = call ptr @__cxa_allocate_exception(i64 32) #15
  %32 = call ptr @__errno_location() #14
  %33 = load i32, ptr %32, align 4, !tbaa !11
  call void @llvm.lifetime.start.p0(i64 1, ptr %7) #15
  call void @llvm.lifetime.start.p0(i64 1, ptr %8) #15
  invoke void @"_ZZN3fmt3v114file4dup2EiENK3$_0clEv"(ptr noundef nonnull align 1 dereferenceable(1) %8)
          to label %34 unwind label %42

34:                                               ; preds = %30
  invoke void @"_ZN3fmt3v1119basic_format_stringIcJRiS2_EEC2IZZNS0_4file4dup2EiENK3$_0clEvE18FMT_COMPILE_STRINGTnNSt9enable_ifIXoosr3std14is_convertibleIRKT_NS0_17basic_string_viewIcEEEE5valueaasr6detail17is_compile_stringIS9_EE5valuesr3std16is_constructibleISD_SB_EE5valueEiE4typeELi0EEESB_"(ptr noundef nonnull align 8 dereferenceable(16) %6, ptr noundef nonnull align 1 dereferenceable(1) %7)
          to label %35 unwind label %42

35:                                               ; preds = %34
  %36 = getelementptr inbounds nuw %"class.fmt::v11::file", ptr %12, i32 0, i32 0
  %37 = getelementptr inbounds nuw { ptr, i64 }, ptr %6, i32 0, i32 0
  %38 = load ptr, ptr %37, align 8
  %39 = getelementptr inbounds nuw { ptr, i64 }, ptr %6, i32 0, i32 1
  %40 = load i64, ptr %39, align 8
  invoke void @_ZN3fmt3v1112system_errorIJRiS2_EEESt12system_erroriNS0_19basic_format_stringIcJDpNS0_13type_identityIT_E4typeEEEEDpOS6_(ptr dead_on_unwind writable sret(%"class.std::system_error") align 8 %31, i32 noundef %33, ptr %38, i64 %40, ptr noundef nonnull align 4 dereferenceable(4) %36, ptr noundef nonnull align 4 dereferenceable(4) %4)
          to label %41 unwind label %42

41:                                               ; preds = %35
  store i1 false, ptr %11, align 1
  invoke void @__cxa_throw(ptr %31, ptr @_ZTISt12system_error, ptr @_ZNSt12system_errorD1Ev) #17
          to label %55 unwind label %42

42:                                               ; preds = %41, %35, %34, %30
  %43 = landingpad { ptr, i32 }
          cleanup
  %44 = extractvalue { ptr, i32 } %43, 0
  store ptr %44, ptr %9, align 8
  %45 = extractvalue { ptr, i32 } %43, 1
  store i32 %45, ptr %10, align 4
  call void @llvm.lifetime.end.p0(i64 1, ptr %8) #15
  call void @llvm.lifetime.end.p0(i64 1, ptr %7) #15
  %46 = load i1, ptr %11, align 1
  br i1 %46, label %47, label %48

47:                                               ; preds = %42
  call void @__cxa_free_exception(ptr %31) #15
  br label %48

48:                                               ; preds = %47, %42
  call void @llvm.lifetime.end.p0(i64 4, ptr %5) #15
  br label %50

49:                                               ; preds = %27
  call void @llvm.lifetime.end.p0(i64 4, ptr %5) #15
  ret void

50:                                               ; preds = %48
  %51 = load ptr, ptr %9, align 8
  %52 = load i32, ptr %10, align 4
  %53 = insertvalue { ptr, i32 } poison, ptr %51, 0
  %54 = insertvalue { ptr, i32 } %53, i32 %52, 1
  resume { ptr, i32 } %54

55:                                               ; preds = %41
  unreachable
}