; Function Attrs: mustprogress uwtable
define void @_ZN3fmt3v114file4dup2Ei(ptr noundef nonnull readonly align 4 captures(none) dereferenceable(4) %0, i32 noundef %1) local_unnamed_addr #6 align 2 personality ptr @__gxx_personality_v0 {
  %3 = alloca %"struct.fmt::v11::detail::format_arg_store.43", align 16
  br label %4

4:                                                ; preds = %8, %2
  %5 = load i32, ptr %0, align 4, !tbaa !22
  %6 = tail call i32 @dup2(i32 noundef %5, i32 noundef %1) #17
  %7 = icmp eq i32 %6, -1
  br i1 %7, label %8, label %.critedge5

8:                                                ; preds = %4
  %9 = tail call ptr @__errno_location() #16
  %10 = load i32, ptr %9, align 4, !tbaa !9
  %11 = icmp eq i32 %10, 4
  br i1 %11, label %4, label %12, !llvm.loop !49

12:                                               ; preds = %8
  %13 = tail call ptr @__cxa_allocate_exception(i64 32) #17
  %14 = load i32, ptr %9, align 4, !tbaa !9
  call void @llvm.lifetime.start.p0(i64 32, ptr nonnull %3) #17, !noalias !50
  tail call void @llvm.experimental.noalias.scope.decl(metadata !53)
  %15 = load i32, ptr %0, align 4, !tbaa !9, !noalias !56
  %.sroa.01.0.insert.ext.i.i = zext i32 %15 to i64
  store i64 %.sroa.01.0.insert.ext.i.i, ptr %3, align 16, !alias.scope !53, !noalias !50
  %16 = getelementptr inbounds nuw i8, ptr %3, i64 16
  %.sroa.01.0.insert.ext.i4.i = zext i32 %1 to i64
  store i64 %.sroa.01.0.insert.ext.i4.i, ptr %16, align 16, !alias.scope !53, !noalias !50
  invoke void @_ZN3fmt3v1113vsystem_errorEiNS0_17basic_string_viewIcEENS0_17basic_format_argsINS0_7contextEEE(ptr dead_on_unwind writable sret(%"class.std::system_error") align 8 %13, i32 noundef %14, ptr nonnull @.str.8, i64 41, i64 17, ptr nonnull %3)
          to label %17 unwind label %18

17:                                               ; preds = %12
  call void @llvm.lifetime.end.p0(i64 32, ptr nonnull %3) #17, !noalias !50
  call void @__cxa_throw(ptr %13, ptr nonnull @_ZTISt12system_error, ptr nonnull @_ZNSt12system_errorD1Ev) #19
  unreachable

18:                                               ; preds = %12
  %19 = landingpad { ptr, i32 }
          cleanup
  call void @__cxa_free_exception(ptr %13) #17
  resume { ptr, i32 } %19

.critedge5:                                       ; preds = %4
  ret void
}